target datalayout = "e-m:e-p270:32:32-p271:32:32-p272:64:64-i64:64-i128:128-f80:128-n8:16:32:64-S128"
target triple = "x86_64-pc-linux-gnu"

%struct.ssl_st = type { i32, i16, i16, ptr, ptr, ptr, ptr, ptr, i32, i32, ptr, ptr, i32, i32, ptr, ptr, ptr, ptr, ptr, ptr, ptr, ptr, i32, i32, [32 x i8], ptr, ptr, ptr, ptr, ptr, ptr, ptr, i64, %struct.crypto_ex_data_st, ptr, i32, i32, i32, i32, i16, ptr, i32, i64, ptr, ptr, ptr, ptr, ptr, ptr, i32, i32, ptr, ptr, i8, i8, i32 }
%struct.crypto_ex_data_st = type { ptr }
%struct.ssl3_state_st = type { [8 x i8], [8 x i8], [32 x i8], [32 x i8], i8, i8, %struct.ssl3_buffer_st, %struct.ssl3_buffer_st, %struct.ssl3_record_st, i8, i32, i32, i32, i32, ptr, ptr, %struct.env_md_ctx_st, %struct.env_md_ctx_st, i8, i32, [2 x i8], i32, i8, i8, ptr, ptr, ptr, %struct.anon, [64 x i8], i8, [64 x i8], i8, i32, i32, ptr, i64, ptr, i64, i8, [64 x i8] }
%struct.ssl3_buffer_st = type { ptr, i16, i16, i16 }
%struct.ssl3_record_st = type { i8, i16, ptr }
%struct.env_md_ctx_st = type { ptr, ptr, ptr, ptr }
%struct.anon = type { [64 x i8], i32, [64 x i8], i32, i64, i32, ptr, i32, i32, %union.anon, %union.anon.0, i8, i32, ptr, ptr, i64, ptr, i8, i8, i8, i8, i32, i8, ptr, i64, i8, ptr, i8, i8, i8, %struct.ssl_ecdh_ctx_st, ptr, i16 }
%union.anon = type { i32 }
%union.anon.0 = type { i16 }
%struct.ssl_ecdh_ctx_st = type { ptr, ptr }
%struct.ssl_cipher_st = type { ptr, i32, i32, i32, i32, i32, i32 }
%struct.ssl_protocol_method_st = type { i8, ptr, ptr, ptr, ptr, ptr, ptr, ptr, ptr, ptr, ptr, ptr, i32, ptr, ptr }
%struct.ssl_session_st = type { i32, i32, i32, i32, [48 x i8], i32, [32 x i8], i32, [32 x i8], ptr, ptr, ptr, i64, i64, i64, ptr, %struct.crypto_ex_data_st, ptr, ptr, ptr, ptr, i64, i64, ptr, i64, ptr, [32 x i8], [64 x i8], i32, i32, i8 }
%struct.cbb_st = type { ptr, ptr, i64, i8, i8, i8 }
%struct.buf_mem_st = type { i64, ptr, i64 }

@.str = private unnamed_addr constant [117 x i8] c"generated/home/dtcxzyw/WorkSpace/Projects/compilers/llvm-opt-benchmark/bench/libquic/libquic/boringssl/ssl/s3_srvr.c\00", align 1

; Function Attrs: nounwind uwtable
define hidden i32 @ssl3_send_server_hello(ptr noundef %0) #0 {
  %2 = alloca i32, align 4
  %3 = alloca ptr, align 8
  %4 = alloca %struct.cbb_st, align 8
  %5 = alloca %struct.cbb_st, align 8
  %6 = alloca i64, align 8
  %7 = alloca i32, align 4
  store ptr %0, ptr %3, align 8, !tbaa !6
  %8 = load ptr, ptr %3, align 8, !tbaa !6
  %9 = getelementptr inbounds nuw %struct.ssl_st, ptr %8, i32 0, i32 9
  %10 = load i32, ptr %9, align 4, !tbaa !48
  %11 = icmp eq i32 %10, 8497
  br i1 %11, label %12, label %20

12:                                               ; preds = %1
  %13 = load ptr, ptr %3, align 8, !tbaa !6
  %14 = getelementptr inbounds nuw %struct.ssl_st, ptr %13, i32 0, i32 3
  %15 = load ptr, ptr %14, align 8, !tbaa !76
  %16 = getelementptr inbounds nuw %struct.ssl_protocol_method_st, ptr %15, i32 0, i32 14
  %17 = load ptr, ptr %16, align 8, !tbaa !135
  %18 = load ptr, ptr %3, align 8, !tbaa !6
  %19 = call i32 %17(ptr noundef %18)
  store i32 %19, ptr %2, align 4
  br label %174

20:                                               ; preds = %1
  %21 = load ptr, ptr %3, align 8, !tbaa !6
  %22 = getelementptr inbounds nuw %struct.ssl_st, ptr %21, i32 0, i32 14
  %23 = load ptr, ptr %22, align 8, !tbaa !51
  %24 = getelementptr inbounds nuw %struct.ssl3_state_st, ptr %23, i32 0, i32 38
  %25 = load i8, ptr %24, align 8, !tbaa !80
  %26 = sext i8 %25 to i32
  %27 = icmp ne i32 %26, 0
  br i1 %27, label %28, label %45

28:                                               ; preds = %20
  %29 = load ptr, ptr %3, align 8, !tbaa !6
  %30 = getelementptr inbounds nuw %struct.ssl_st, ptr %29, i32 0, i32 14
  %31 = load ptr, ptr %30, align 8, !tbaa !51
  %32 = getelementptr inbounds nuw %struct.ssl3_state_st, ptr %31, i32 0, i32 27
  %33 = getelementptr inbounds nuw %struct.anon, ptr %32, i32 0, i32 6
  %34 = load ptr, ptr %33, align 8, !tbaa !68
  %35 = getelementptr inbounds nuw %struct.ssl_cipher_st, ptr %34, i32 0, i32 2
  %36 = load i32, ptr %35, align 4, !tbaa !134
  %37 = zext i32 %36 to i64
  %38 = and i64 %37, 4
  %39 = icmp eq i64 %38, 0
  br i1 %39, label %40, label %45

40:                                               ; preds = %28
  %41 = load ptr, ptr %3, align 8, !tbaa !6
  %42 = getelementptr inbounds nuw %struct.ssl_st, ptr %41, i32 0, i32 14
  %43 = load ptr, ptr %42, align 8, !tbaa !51
  %44 = getelementptr inbounds nuw %struct.ssl3_state_st, ptr %43, i32 0, i32 38
  store i8 0, ptr %44, align 8, !tbaa !80
  br label %45

45:                                               ; preds = %40, %28, %20
  %46 = load ptr, ptr %3, align 8, !tbaa !6
  %47 = getelementptr inbounds nuw %struct.ssl_st, ptr %46, i32 0, i32 54
  %48 = load i8, ptr %47, align 1
  %49 = and i8 %48, 1
  %50 = zext i8 %49 to i32
  %51 = icmp ne i32 %50, 0
  br i1 %51, label %52, label %64

52:                                               ; preds = %45
  %53 = load ptr, ptr %3, align 8, !tbaa !6
  %54 = getelementptr inbounds nuw %struct.ssl_st, ptr %53, i32 0, i32 25
  %55 = load ptr, ptr %54, align 8, !tbaa !82
  %56 = getelementptr inbounds nuw %struct.ssl_session_st, ptr %55, i32 0, i32 28
  %57 = load i32, ptr %56, align 8, !tbaa !136
  %58 = icmp eq i32 %57, 0
  br i1 %58, label %59, label %64

59:                                               ; preds = %52
  %60 = load ptr, ptr %3, align 8, !tbaa !6
  %61 = getelementptr inbounds nuw %struct.ssl_st, ptr %60, i32 0, i32 14
  %62 = load ptr, ptr %61, align 8, !tbaa !51
  %63 = getelementptr inbounds nuw %struct.ssl3_state_st, ptr %62, i32 0, i32 38
  store i8 0, ptr %63, align 8, !tbaa !80
  br label %64

64:                                               ; preds = %59, %52, %45
  %65 = load ptr, ptr %3, align 8, !tbaa !6
  %66 = getelementptr inbounds nuw %struct.ssl_st, ptr %65, i32 0, i32 14
  %67 = load ptr, ptr %66, align 8, !tbaa !51
  %68 = getelementptr inbounds nuw %struct.ssl3_state_st, ptr %67, i32 0, i32 2
  %69 = getelementptr inbounds [32 x i8], ptr %68, i64 0, i64 0
  %70 = call i32 @ssl_fill_hello_random(ptr noundef %69, i64 noundef 32, i32 noundef 1)
  %71 = icmp ne i32 %70, 0
  br i1 %71, label %73, label %72

72:                                               ; preds = %64
  call void @ERR_put_error(i32 noundef 16, i32 noundef 0, i32 noundef 68, ptr noundef @.str, i32 noundef 1124)
  store i32 -1, ptr %2, align 4
  br label %174

73:                                               ; preds = %64
  call void @llvm.lifetime.start.p0(i64 32, ptr %4) #9
  call void @llvm.lifetime.start.p0(i64 32, ptr %5) #9
  call void @llvm.lifetime.start.p0(i64 8, ptr %6) #9
  call void @CBB_zero(ptr noundef %4)
  %74 = load ptr, ptr %3, align 8, !tbaa !6
  %75 = getelementptr inbounds nuw %struct.ssl_st, ptr %74, i32 0, i32 10
  %76 = load ptr, ptr %75, align 8, !tbaa !49
  %77 = getelementptr inbounds nuw %struct.buf_mem_st, ptr %76, i32 0, i32 1
  %78 = load ptr, ptr %77, align 8, !tbaa !95
  %79 = load ptr, ptr %3, align 8, !tbaa !6
  %80 = getelementptr inbounds nuw %struct.ssl_st, ptr %79, i32 0, i32 3
  %81 = load ptr, ptr %80, align 8, !tbaa !76
  %82 = getelementptr inbounds nuw %struct.ssl_protocol_method_st, ptr %81, i32 0, i32 12
  %83 = load i32, ptr %82, align 8, !tbaa !137
  %84 = zext i32 %83 to i64
  %85 = getelementptr inbounds nuw i8, ptr %78, i64 %84
  %86 = load ptr, ptr %3, align 8, !tbaa !6
  %87 = getelementptr inbounds nuw %struct.ssl_st, ptr %86, i32 0, i32 10
  %88 = load ptr, ptr %87, align 8, !tbaa !49
  %89 = getelementptr inbounds nuw %struct.buf_mem_st, ptr %88, i32 0, i32 2
  %90 = load i64, ptr %89, align 8, !tbaa !97
  %91 = load ptr, ptr %3, align 8, !tbaa !6
  %92 = getelementptr inbounds nuw %struct.ssl_st, ptr %91, i32 0, i32 3
  %93 = load ptr, ptr %92, align 8, !tbaa !76
  %94 = getelementptr inbounds nuw %struct.ssl_protocol_method_st, ptr %93, i32 0, i32 12
  %95 = load i32, ptr %94, align 8, !tbaa !137
  %96 = zext i32 %95 to i64
  %97 = sub i64 %90, %96
  %98 = call i32 @CBB_init_fixed(ptr noundef %4, ptr noundef %85, i64 noundef %97)
  %99 = icmp ne i32 %98, 0
  br i1 %99, label %100, label %162

100:                                              ; preds = %73
  %101 = load ptr, ptr %3, align 8, !tbaa !6
  %102 = getelementptr inbounds nuw %struct.ssl_st, ptr %101, i32 0, i32 0
  %103 = load i32, ptr %102, align 8, !tbaa !113
  %104 = trunc i32 %103 to i16
  %105 = call i32 @CBB_add_u16(ptr noundef %4, i16 noundef zeroext %104)
  %106 = icmp ne i32 %105, 0
  br i1 %106, label %107, label %162

107:                                              ; preds = %100
  %108 = load ptr, ptr %3, align 8, !tbaa !6
  %109 = getelementptr inbounds nuw %struct.ssl_st, ptr %108, i32 0, i32 14
  %110 = load ptr, ptr %109, align 8, !tbaa !51
  %111 = getelementptr inbounds nuw %struct.ssl3_state_st, ptr %110, i32 0, i32 2
  %112 = getelementptr inbounds [32 x i8], ptr %111, i64 0, i64 0
  %113 = call i32 @CBB_add_bytes(ptr noundef %4, ptr noundef %112, i64 noundef 32)
  %114 = icmp ne i32 %113, 0
  br i1 %114, label %115, label %162

115:                                              ; preds = %107
  %116 = call i32 @CBB_add_u8_length_prefixed(ptr noundef %4, ptr noundef %5)
  %117 = icmp ne i32 %116, 0
  br i1 %117, label %118, label %162

118:                                              ; preds = %115
  %119 = load ptr, ptr %3, align 8, !tbaa !6
  %120 = getelementptr inbounds nuw %struct.ssl_st, ptr %119, i32 0, i32 25
  %121 = load ptr, ptr %120, align 8, !tbaa !82
  %122 = getelementptr inbounds nuw %struct.ssl_session_st, ptr %121, i32 0, i32 6
  %123 = getelementptr inbounds [32 x i8], ptr %122, i64 0, i64 0
  %124 = load ptr, ptr %3, align 8, !tbaa !6
  %125 = getelementptr inbounds nuw %struct.ssl_st, ptr %124, i32 0, i32 25
  %126 = load ptr, ptr %125, align 8, !tbaa !82
  %127 = getelementptr inbounds nuw %struct.ssl_session_st, ptr %126, i32 0, i32 5
  %128 = load i32, ptr %127, align 8, !tbaa !119
  %129 = zext i32 %128 to i64
  %130 = call i32 @CBB_add_bytes(ptr noundef %5, ptr noundef %123, i64 noundef %129)
  %131 = icmp ne i32 %130, 0
  br i1 %131, label %132, label %162

132:                                              ; preds = %118
  %133 = load ptr, ptr %3, align 8, !tbaa !6
  %134 = getelementptr inbounds nuw %struct.ssl_st, ptr %133, i32 0, i32 14
  %135 = load ptr, ptr %134, align 8, !tbaa !51
  %136 = getelementptr inbounds nuw %struct.ssl3_state_st, ptr %135, i32 0, i32 27
  %137 = getelementptr inbounds nuw %struct.anon, ptr %136, i32 0, i32 6
  %138 = load ptr, ptr %137, align 8, !tbaa !68
  %139 = call zeroext i16 @ssl_cipher_get_value(ptr noundef %138)
  %140 = call i32 @CBB_add_u16(ptr noundef %4, i16 noundef zeroext %139)
  %141 = icmp ne i32 %140, 0
  br i1 %141, label %142, label %162

142:                                              ; preds = %132
  %143 = call i32 @CBB_add_u8(ptr noundef %4, i8 noundef zeroext 0)
  %144 = icmp ne i32 %143, 0
  br i1 %144, label %145, label %162

145:                                              ; preds = %142
  %146 = load ptr, ptr %3, align 8, !tbaa !6
  %147 = call i32 @ssl_add_serverhello_tlsext(ptr noundef %146, ptr noundef %4)
  %148 = icmp ne i32 %147, 0
  br i1 %148, label %149, label %162

149:                                              ; preds = %145
  %150 = call i32 @CBB_finish(ptr noundef %4, ptr noundef null, ptr noundef %6)
  %151 = icmp ne i32 %150, 0
  br i1 %151, label %152, label %162

152:                                              ; preds = %149
  %153 = load ptr, ptr %3, align 8, !tbaa !6
  %154 = getelementptr inbounds nuw %struct.ssl_st, ptr %153, i32 0, i32 3
  %155 = load ptr, ptr %154, align 8, !tbaa !76
  %156 = getelementptr inbounds nuw %struct.ssl_protocol_method_st, ptr %155, i32 0, i32 13
  %157 = load ptr, ptr %156, align 8, !tbaa !138
  %158 = load ptr, ptr %3, align 8, !tbaa !6
  %159 = load i64, ptr %6, align 8, !tbaa !91
  %160 = call i32 %157(ptr noundef %158, i32 noundef 2, i64 noundef %159)
  %161 = icmp ne i32 %160, 0
  br i1 %161, label %163, label %162

162:                                              ; preds = %152, %149, %145, %142, %132, %118, %115, %107, %100, %73
  call void @ERR_put_error(i32 noundef 16, i32 noundef 0, i32 noundef 68, ptr noundef @.str, i32 noundef 1143)
  call void @CBB_cleanup(ptr noundef %4)
  store i32 -1, ptr %2, align 4
  store i32 1, ptr %7, align 4
  br label %173

163:                                              ; preds = %152
  %164 = load ptr, ptr %3, align 8, !tbaa !6
  %165 = getelementptr inbounds nuw %struct.ssl_st, ptr %164, i32 0, i32 9
  store i32 8497, ptr %165, align 4, !tbaa !48
  %166 = load ptr, ptr %3, align 8, !tbaa !6
  %167 = getelementptr inbounds nuw %struct.ssl_st, ptr %166, i32 0, i32 3
  %168 = load ptr, ptr %167, align 8, !tbaa !76
  %169 = getelementptr inbounds nuw %struct.ssl_protocol_method_st, ptr %168, i32 0, i32 14
  %170 = load ptr, ptr %169, align 8, !tbaa !135
  %171 = load ptr, ptr %3, align 8, !tbaa !6
  %172 = call i32 %170(ptr noundef %171)
  store i32 %172, ptr %2, align 4
  store i32 1, ptr %7, align 4
  br label %173

173:                                              ; preds = %163, %162
  call void @llvm.lifetime.end.p0(i64 8, ptr %6) #9
  call void @llvm.lifetime.end.p0(i64 32, ptr %5) #9
  call void @llvm.lifetime.end.p0(i64 32, ptr %4) #9
  br label %174

174:                                              ; preds = %173, %72, %12
  %175 = load i32, ptr %2, align 4
  ret i32 %175
}