; Function Attrs: nounwind uwtable
define hidden i32 @ssl3_send_server_hello(ptr noundef %0) local_unnamed_addr #0 {
  %2 = alloca %struct.cbb_st, align 8
  %3 = alloca %struct.cbb_st, align 8
  %4 = alloca i64, align 8
  %5 = getelementptr inbounds nuw i8, ptr %0, i64 52
  %6 = load i32, ptr %5, align 4, !tbaa !43
  %7 = icmp eq i32 %6, 8497
  br i1 %7, label %8, label %14

8:                                                ; preds = %1
  %9 = getelementptr inbounds nuw i8, ptr %0, i64 8
  %10 = load ptr, ptr %9, align 8, !tbaa !64
  %11 = getelementptr inbounds nuw i8, ptr %10, i64 112
  %12 = load ptr, ptr %11, align 8, !tbaa !65
  %13 = tail call i32 %12(ptr noundef nonnull %0) #10
  br label %100

14:                                               ; preds = %1
  %15 = getelementptr inbounds nuw i8, ptr %0, i64 80
  %16 = load ptr, ptr %15, align 8, !tbaa !46
  %17 = getelementptr inbounds nuw i8, ptr %16, i64 768
  %18 = load i8, ptr %17, align 8, !tbaa !77
  %.not = icmp eq i8 %18, 0
  br i1 %.not, label %27, label %19

19:                                               ; preds = %14
  %20 = getelementptr inbounds nuw i8, ptr %16, i64 440
  %21 = load ptr, ptr %20, align 8, !tbaa !63
  %22 = getelementptr inbounds nuw i8, ptr %21, i64 12
  %23 = load i32, ptr %22, align 4, !tbaa !130
  %24 = and i32 %23, 4
  %25 = icmp eq i32 %24, 0
  br i1 %25, label %26, label %27

26:                                               ; preds = %19
  store i8 0, ptr %17, align 8, !tbaa !77
  br label %27

27:                                               ; preds = %26, %19, %14
  %28 = getelementptr inbounds nuw i8, ptr %0, i64 385
  %29 = load i8, ptr %28, align 1
  %30 = and i8 %29, 1
  %.not25 = icmp eq i8 %30, 0
  br i1 %.not25, label %38, label %31

31:                                               ; preds = %27
  %32 = getelementptr inbounds nuw i8, ptr %0, i64 184
  %33 = load ptr, ptr %32, align 8, !tbaa !79
  %34 = getelementptr inbounds nuw i8, ptr %33, i64 368
  %35 = load i32, ptr %34, align 8, !tbaa !131
  %36 = icmp eq i32 %35, 0
  br i1 %36, label %37, label %38

37:                                               ; preds = %31
  store i8 0, ptr %17, align 8, !tbaa !77
  br label %38

38:                                               ; preds = %37, %31, %27
  %39 = getelementptr inbounds nuw i8, ptr %16, i64 16
  %40 = tail call i32 @ssl_fill_hello_random(ptr noundef nonnull %39, i64 noundef 32, i32 noundef 1) #10
  %.not26 = icmp eq i32 %40, 0
  br i1 %.not26, label %41, label %42

41:                                               ; preds = %38
  tail call void @ERR_put_error(i32 noundef 16, i32 noundef 0, i32 noundef 68, ptr noundef nonnull @.str, i32 noundef 1124) #10
  br label %100

42:                                               ; preds = %38
  call void @llvm.lifetime.start.p0(i64 32, ptr nonnull %2) #10
  call void @llvm.lifetime.start.p0(i64 32, ptr nonnull %3) #10
  call void @llvm.lifetime.start.p0(i64 8, ptr nonnull %4) #10
  call void @CBB_zero(ptr noundef nonnull %2) #10
  %43 = getelementptr inbounds nuw i8, ptr %0, i64 56
  %44 = load ptr, ptr %43, align 8, !tbaa !44
  %45 = getelementptr inbounds nuw i8, ptr %44, i64 8
  %46 = load ptr, ptr %45, align 8, !tbaa !90
  %47 = getelementptr inbounds nuw i8, ptr %0, i64 8
  %48 = load ptr, ptr %47, align 8, !tbaa !64
  %49 = getelementptr inbounds nuw i8, ptr %48, i64 96
  %50 = load i32, ptr %49, align 8, !tbaa !132
  %51 = zext i32 %50 to i64
  %52 = getelementptr inbounds nuw i8, ptr %46, i64 %51
  %53 = getelementptr inbounds nuw i8, ptr %44, i64 16
  %54 = load i64, ptr %53, align 8, !tbaa !92
  %55 = sub i64 %54, %51
  %56 = call i32 @CBB_init_fixed(ptr noundef nonnull %2, ptr noundef %52, i64 noundef %55) #10
  %.not27 = icmp eq i32 %56, 0
  br i1 %.not27, label %93, label %57

57:                                               ; preds = %42
  %58 = load i32, ptr %0, align 8, !tbaa !110
  %59 = trunc i32 %58 to i16
  %60 = call i32 @CBB_add_u16(ptr noundef nonnull %2, i16 noundef zeroext %59) #10
  %.not28 = icmp eq i32 %60, 0
  br i1 %.not28, label %93, label %61

61:                                               ; preds = %57
  %62 = load ptr, ptr %15, align 8, !tbaa !46
  %63 = getelementptr inbounds nuw i8, ptr %62, i64 16
  %64 = call i32 @CBB_add_bytes(ptr noundef nonnull %2, ptr noundef nonnull %63, i64 noundef 32) #10
  %.not29 = icmp eq i32 %64, 0
  br i1 %.not29, label %93, label %65

65:                                               ; preds = %61
  %66 = call i32 @CBB_add_u8_length_prefixed(ptr noundef nonnull %2, ptr noundef nonnull %3) #10
  %.not30 = icmp eq i32 %66, 0
  br i1 %.not30, label %93, label %67

67:                                               ; preds = %65
  %68 = getelementptr inbounds nuw i8, ptr %0, i64 184
  %69 = load ptr, ptr %68, align 8, !tbaa !79
  %70 = getelementptr inbounds nuw i8, ptr %69, i64 68
  %71 = getelementptr inbounds nuw i8, ptr %69, i64 64
  %72 = load i32, ptr %71, align 8, !tbaa !116
  %73 = zext i32 %72 to i64
  %74 = call i32 @CBB_add_bytes(ptr noundef nonnull %3, ptr noundef nonnull %70, i64 noundef %73) #10
  %.not31 = icmp eq i32 %74, 0
  br i1 %.not31, label %93, label %75

75:                                               ; preds = %67
  %76 = load ptr, ptr %15, align 8, !tbaa !46
  %77 = getelementptr inbounds nuw i8, ptr %76, i64 440
  %78 = load ptr, ptr %77, align 8, !tbaa !63
  %79 = call zeroext i16 @ssl_cipher_get_value(ptr noundef %78) #10
  %80 = call i32 @CBB_add_u16(ptr noundef nonnull %2, i16 noundef zeroext %79) #10
  %.not32 = icmp eq i32 %80, 0
  br i1 %.not32, label %93, label %81

81:                                               ; preds = %75
  %82 = call i32 @CBB_add_u8(ptr noundef nonnull %2, i8 noundef zeroext 0) #10
  %.not33 = icmp eq i32 %82, 0
  br i1 %.not33, label %93, label %83

83:                                               ; preds = %81
  %84 = call i32 @ssl_add_serverhello_tlsext(ptr noundef nonnull %0, ptr noundef nonnull %2) #10
  %.not34 = icmp eq i32 %84, 0
  br i1 %.not34, label %93, label %85

85:                                               ; preds = %83
  %86 = call i32 @CBB_finish(ptr noundef nonnull %2, ptr noundef null, ptr noundef nonnull %4) #10
  %.not35 = icmp eq i32 %86, 0
  br i1 %.not35, label %93, label %87

87:                                               ; preds = %85
  %88 = load ptr, ptr %47, align 8, !tbaa !64
  %89 = getelementptr inbounds nuw i8, ptr %88, i64 104
  %90 = load ptr, ptr %89, align 8, !tbaa !71
  %91 = load i64, ptr %4, align 8, !tbaa !97
  %92 = call i32 %90(ptr noundef nonnull %0, i32 noundef 2, i64 noundef %91) #10
  %.not36 = icmp eq i32 %92, 0
  br i1 %.not36, label %93, label %94

93:                                               ; preds = %87, %85, %83, %81, %75, %67, %65, %61, %57, %42
  call void @ERR_put_error(i32 noundef 16, i32 noundef 0, i32 noundef 68, ptr noundef nonnull @.str, i32 noundef 1143) #10
  call void @CBB_cleanup(ptr noundef nonnull %2) #10
  br label %99

94:                                               ; preds = %87
  store i32 8497, ptr %5, align 4, !tbaa !43
  %95 = load ptr, ptr %47, align 8, !tbaa !64
  %96 = getelementptr inbounds nuw i8, ptr %95, i64 112
  %97 = load ptr, ptr %96, align 8, !tbaa !65
  %98 = call i32 %97(ptr noundef nonnull %0) #10
  br label %99

99:                                               ; preds = %94, %93
  %.1 = phi i32 [ %98, %94 ], [ -1, %93 ]
  call void @llvm.lifetime.end.p0(i64 8, ptr nonnull %4) #10
  call void @llvm.lifetime.end.p0(i64 32, ptr nonnull %3) #10
  call void @llvm.lifetime.end.p0(i64 32, ptr nonnull %2) #10
  br label %100

100:                                              ; preds = %99, %41, %8
  %.0 = phi i32 [ %13, %8 ], [ %.1, %99 ], [ -1, %41 ]
  ret i32 %.0
}